; ModuleID = 'source-C-CXX/12/630.c'
source_filename = "source-C-CXX/12/630.c"
target datalayout = "e-m:e-p270:32:32-p271:32:32-p272:64:64-i64:64-f80:128-n8:16:32:64-S128"
target triple = "x86_64-pc-linux-gnu"

@.str = private unnamed_addr constant [3 x i8] c"%d\00", align 1
@.str.1 = private unnamed_addr constant [4 x i8] c" %d\00", align 1

; Function Attrs: nofree nounwind sspstrong uwtable
define dso_local i32 @main() local_unnamed_addr #0 {
  %1 = alloca [20000 x i32], align 16
  %2 = alloca i32, align 4
  %3 = bitcast [20000 x i32]* %1 to i8*
  call void @llvm.lifetime.start.p0i8(i64 80000, i8* nonnull %3) #3
  %4 = bitcast i32* %2 to i8*
  call void @llvm.lifetime.start.p0i8(i64 4, i8* nonnull %4) #3
  %5 = call i32 (i8*, ...) @__isoc99_scanf(i8* getelementptr inbounds ([3 x i8], [3 x i8]* @.str, i64 0, i64 0), i32* nonnull %2)
  %6 = load i32, i32* %2, align 4, !tbaa !5
  %7 = icmp ne i32 %6, 1
  %8 = getelementptr inbounds [20000 x i32], [20000 x i32]* %1, i64 0, i64 0
  %9 = call i32 (i8*, ...) @__isoc99_scanf(i8* getelementptr inbounds ([3 x i8], [3 x i8]* @.str, i64 0, i64 0), i32* nonnull %8)
  %10 = load i32, i32* %8, align 16, !tbaa !5
  %11 = call i32 (i8*, ...) @printf(i8* nonnull dereferenceable(1) getelementptr inbounds ([3 x i8], [3 x i8]* @.str, i64 0, i64 0), i32 %10)
  %12 = load i32, i32* %2, align 4
  %13 = icmp sgt i32 %12, 1
  %14 = select i1 %7, i1 %13, i1 false
  br i1 %14, label %15, label %56

15:                                               ; preds = %0, %51
  %16 = phi i64 [ %52, %51 ], [ 1, %0 ]
  %17 = getelementptr inbounds [20000 x i32], [20000 x i32]* %1, i64 0, i64 %16
  %18 = call i32 (i8*, ...) @__isoc99_scanf(i8* getelementptr inbounds ([3 x i8], [3 x i8]* @.str, i64 0, i64 0), i32* nonnull %17)
  %19 = load i32, i32* %17, align 4, !tbaa !5
  br label %20

20:                                               ; preds = %15, %25
  %21 = phi i64 [ 0, %15 ], [ %26, %25 ]
  %22 = getelementptr inbounds [20000 x i32], [20000 x i32]* %1, i64 0, i64 %21
  %23 = load i32, i32* %22, align 4, !tbaa !5
  %24 = icmp eq i32 %19, %23
  br i1 %24, label %28, label %25

25:                                               ; preds = %20
  %26 = add nuw nsw i64 %21, 1
  %27 = icmp eq i64 %26, %16
  br i1 %27, label %28, label %20, !llvm.loop !9

28:                                               ; preds = %20, %25
  %29 = phi i64 [ %21, %20 ], [ %16, %25 ]
  %30 = load i32, i32* %2, align 4, !tbaa !5
  %31 = add nsw i32 %30, -1
  %32 = sext i32 %31 to i64
  %33 = icmp slt i64 %16, %32
  br i1 %33, label %34, label %37

34:                                               ; preds = %28
  %35 = and i64 %29, 4294967295
  %36 = icmp eq i64 %16, %35
  br i1 %36, label %49, label %51

37:                                               ; preds = %28, %42
  %38 = phi i64 [ %43, %42 ], [ 0, %28 ]
  %39 = getelementptr inbounds [20000 x i32], [20000 x i32]* %1, i64 0, i64 %38
  %40 = load i32, i32* %39, align 4, !tbaa !5
  %41 = icmp eq i32 %19, %40
  br i1 %41, label %45, label %42

42:                                               ; preds = %37
  %43 = add nuw nsw i64 %38, 1
  %44 = icmp eq i64 %43, %16
  br i1 %44, label %45, label %37, !llvm.loop !11

45:                                               ; preds = %37, %42
  %46 = phi i64 [ %38, %37 ], [ %16, %42 ]
  %47 = and i64 %46, 4294967295
  %48 = icmp eq i64 %16, %47
  br i1 %48, label %49, label %51

49:                                               ; preds = %45, %34
  %50 = call i32 (i8*, ...) @printf(i8* nonnull dereferenceable(1) getelementptr inbounds ([4 x i8], [4 x i8]* @.str.1, i64 0, i64 0), i32 %19)
  br label %51

51:                                               ; preds = %49, %34, %45
  %52 = add nuw nsw i64 %16, 1
  %53 = load i32, i32* %2, align 4, !tbaa !5
  %54 = sext i32 %53 to i64
  %55 = icmp slt i64 %52, %54
  br i1 %55, label %15, label %56, !llvm.loop !12

56:                                               ; preds = %51, %0
  call void @llvm.lifetime.end.p0i8(i64 4, i8* nonnull %4) #3
  call void @llvm.lifetime.end.p0i8(i64 80000, i8* nonnull %3) #3
  ret i32 0
}

; Function Attrs: argmemonly mustprogress nofree nosync nounwind willreturn
declare void @llvm.lifetime.start.p0i8(i64 immarg, i8* nocapture) #1

; Function Attrs: nofree nounwind
declare noundef i32 @__isoc99_scanf(i8* nocapture noundef readonly, ...) local_unnamed_addr #2

; Function Attrs: nofree nounwind
declare noundef i32 @printf(i8* nocapture noundef readonly, ...) local_unnamed_addr #2

; Function Attrs: argmemonly mustprogress nofree nosync nounwind willreturn
declare void @llvm.lifetime.end.p0i8(i64 immarg, i8* nocapture) #1


!llvm.module.flags = !{!0, !1, !2, !3}
!llvm.ident = !{!4}

!0 = !{i32 1, !"wchar_size", i32 4}
!1 = !{i32 7, !"PIC Level", i32 2}
!2 = !{i32 7, !"PIE Level", i32 2}
!3 = !{i32 7, !"uwtable", i32 1}
!4 = !{!"clang version 13.0.0"}
!5 = !{!6, !6, i64 0}
!6 = !{!"int", !7, i64 0}
!7 = !{!"omnipotent char", !8, i64 0}
!8 = !{!"Simple C/C++ TBAA"}
!9 = distinct !{!9, !10}
!10 = !{!"llvm.loop.mustprogress"}
!11 = distinct !{!11, !10}
!12 = distinct !{!12, !10}
